target datalayout = "e-m:e-p270:32:32-p271:32:32-p272:64:64-i64:64-i128:128-f80:128-n8:16:32:64-S128"
target triple = "x86_64-pc-linux-gnu"

%struct.dt_ui_t = type { [16 x ptr], [6 x ptr], ptr, ptr, ptr, ptr, ptr, ptr, ptr }
%struct._GTypeInstance = type { ptr }
%struct._GTypeClass = type { i64 }

@.str.83 = private unnamed_addr constant [29 x i8] c"GTK_IS_WIDGET(ui->panels[p])\00", align 1
@__func__.dt_ui_panel_visible = private unnamed_addr constant [20 x i8] c"dt_ui_panel_visible\00", align 1

; Function Attrs: nounwind uwtable
define i32 @dt_ui_panel_visible(ptr noundef %0, i32 noundef %1) #0 {
  %3 = alloca i32, align 4
  %4 = alloca ptr, align 8
  %5 = alloca i32, align 4
  %6 = alloca i32, align 4
  %7 = alloca ptr, align 8
  %8 = alloca i64, align 8
  %9 = alloca i32, align 4
  %10 = alloca i32, align 4
  %11 = alloca i32, align 4
  store ptr %0, ptr %4, align 8, !tbaa !76
  store i32 %1, ptr %5, align 4, !tbaa !17
  br label %12

12:                                               ; preds = %2
  call void @llvm.lifetime.start.p0(i64 4, ptr %6) #15
  call void @llvm.lifetime.start.p0(i64 8, ptr %7) #15
  %13 = load ptr, ptr %4, align 8, !tbaa !76
  %14 = getelementptr inbounds nuw %struct.dt_ui_t, ptr %13, i32 0, i32 1
  %15 = load i32, ptr %5, align 4, !tbaa !17
  %16 = zext i32 %15 to i64
  %17 = getelementptr inbounds nuw [6 x ptr], ptr %14, i64 0, i64 %16
  %18 = load ptr, ptr %17, align 8, !tbaa !6
  store ptr %18, ptr %7, align 8, !tbaa !225
  call void @llvm.lifetime.start.p0(i64 8, ptr %8) #15
  %19 = call i64 @gtk_widget_get_type() #16
  store i64 %19, ptr %8, align 8, !tbaa !227
  call void @llvm.lifetime.start.p0(i64 4, ptr %9) #15
  %20 = load ptr, ptr %7, align 8, !tbaa !225
  %21 = icmp ne ptr %20, null
  br i1 %21, label %23, label %22

22:                                               ; preds = %12
  store i32 0, ptr %9, align 4, !tbaa !17
  br label %42

23:                                               ; preds = %12
  %24 = load ptr, ptr %7, align 8, !tbaa !225
  %25 = getelementptr inbounds nuw %struct._GTypeInstance, ptr %24, i32 0, i32 0
  %26 = load ptr, ptr %25, align 8, !tbaa !228
  %27 = icmp ne ptr %26, null
  br i1 %27, label %28, label %37

28:                                               ; preds = %23
  %29 = load ptr, ptr %7, align 8, !tbaa !225
  %30 = getelementptr inbounds nuw %struct._GTypeInstance, ptr %29, i32 0, i32 0
  %31 = load ptr, ptr %30, align 8, !tbaa !228
  %32 = getelementptr inbounds nuw %struct._GTypeClass, ptr %31, i32 0, i32 0
  %33 = load i64, ptr %32, align 8, !tbaa !231
  %34 = load i64, ptr %8, align 8, !tbaa !227
  %35 = icmp eq i64 %33, %34
  br i1 %35, label %36, label %37

36:                                               ; preds = %28
  store i32 1, ptr %9, align 4, !tbaa !17
  br label %41

37:                                               ; preds = %28, %23
  %38 = load ptr, ptr %7, align 8, !tbaa !225
  %39 = load i64, ptr %8, align 8, !tbaa !227
  %40 = call i32 @g_type_check_instance_is_a(ptr noundef %38, i64 noundef %39) #18
  store i32 %40, ptr %9, align 4, !tbaa !17
  br label %41

41:                                               ; preds = %37, %36
  br label %42

42:                                               ; preds = %41, %22
  %43 = load i32, ptr %9, align 4, !tbaa !17
  store i32 %43, ptr %10, align 4, !tbaa !17
  call void @llvm.lifetime.end.p0(i64 4, ptr %9) #15
  call void @llvm.lifetime.end.p0(i64 8, ptr %8) #15
  call void @llvm.lifetime.end.p0(i64 8, ptr %7) #15
  %44 = load i32, ptr %10, align 4, !tbaa !17
  %45 = icmp ne i32 %44, 0
  br i1 %45, label %46, label %47

46:                                               ; preds = %42
  store i32 1, ptr %6, align 4, !tbaa !17
  br label %48

47:                                               ; preds = %42
  store i32 0, ptr %6, align 4, !tbaa !17
  br label %48

48:                                               ; preds = %47, %46
  %49 = load i32, ptr %6, align 4, !tbaa !17
  store i32 %49, ptr %11, align 4, !tbaa !17
  call void @llvm.lifetime.end.p0(i64 4, ptr %6) #15
  %50 = load i32, ptr %11, align 4, !tbaa !17
  %51 = sext i32 %50 to i64
  %52 = call i64 @llvm.expect.i64(i64 %51, i64 1)
  %53 = icmp ne i64 %52, 0
  br i1 %53, label %54, label %55

54:                                               ; preds = %48
  br label %56

55:                                               ; preds = %48
  call void @g_return_if_fail_warning(ptr noundef null, ptr noundef @__func__.dt_ui_panel_visible, ptr noundef @.str.83)
  store i32 0, ptr %3, align 4
  br label %65

56:                                               ; preds = %54
  br label %57

57:                                               ; preds = %56
  %58 = load ptr, ptr %4, align 8, !tbaa !76
  %59 = getelementptr inbounds nuw %struct.dt_ui_t, ptr %58, i32 0, i32 1
  %60 = load i32, ptr %5, align 4, !tbaa !17
  %61 = zext i32 %60 to i64
  %62 = getelementptr inbounds nuw [6 x ptr], ptr %59, i64 0, i64 %61
  %63 = load ptr, ptr %62, align 8, !tbaa !6
  %64 = call i32 @gtk_widget_get_visible(ptr noundef %63)
  store i32 %64, ptr %3, align 4
  br label %65

65:                                               ; preds = %57, %55
  %66 = load i32, ptr %3, align 4
  ret i32 %66
}