; Function Attrs: nounwind uwtable
define i32 @dt_ui_panel_visible(ptr noundef readonly captures(none) %0, i32 noundef %1) local_unnamed_addr #0 {
  %3 = getelementptr inbounds nuw i8, ptr %0, i64 128
  %4 = zext i32 %1 to i64
  %5 = getelementptr inbounds nuw [6 x ptr], ptr %3, i64 0, i64 %4
  %6 = load ptr, ptr %5, align 8, !tbaa !76
  %7 = tail call i64 @gtk_widget_get_type() #19
  %.not = icmp eq ptr %6, null
  br i1 %.not, label %.critedge, label %8

8:                                                ; preds = %2
  %9 = load ptr, ptr %6, align 8, !tbaa !77
  %.not18 = icmp eq ptr %9, null
  br i1 %.not18, label %13, label %10

10:                                               ; preds = %8
  %11 = load i64, ptr %9, align 8, !tbaa !80
  %12 = icmp eq i64 %11, %7
  br i1 %12, label %.critedge22, label %13

13:                                               ; preds = %10, %8
  %14 = tail call i32 @g_type_check_instance_is_a(ptr noundef nonnull %6, i64 noundef %7) #20
  %15 = icmp eq i32 %14, 0
  br i1 %15, label %.critedge, label %.critedge22, !prof !82

.critedge:                                        ; preds = %2, %13
  tail call void @g_return_if_fail_warning(ptr noundef null, ptr noundef nonnull @__func__.dt_ui_panel_visible, ptr noundef nonnull @.str.83) #18
  br label %17

.critedge22:                                      ; preds = %10, %13
  %16 = tail call i32 @gtk_widget_get_visible(ptr noundef nonnull %6) #18
  br label %17

17:                                               ; preds = %.critedge22, %.critedge
  %.0 = phi i32 [ %16, %.critedge22 ], [ 0, %.critedge ]
  ret i32 %.0
}